target datalayout = "e-m:e-p270:32:32-p271:32:32-p272:64:64-i64:64-i128:128-f80:128-n8:16:32:64-S128"
target triple = "x86_64-pc-linux-gnu"

%"class.benchmark::internal::LogType" = type { ptr }
%"class.std::__cxx11::basic_string" = type { %"struct.std::__cxx11::basic_string<char>::_Alloc_hider", i64, %union.anon }
%"struct.std::__cxx11::basic_string<char>::_Alloc_hider" = type { ptr }
%union.anon = type { i64, [8 x i8] }
%"class.std::locale" = type { ptr }
%"class.std::vector.5" = type { %"struct.std::_Vector_base.6" }
%"struct.std::_Vector_base.6" = type { %"struct.std::_Vector_base<int, std::allocator<int>>::_Vector_impl" }
%"struct.std::_Vector_base<int, std::allocator<int>>::_Vector_impl" = type { %"struct.std::_Vector_base<int, std::allocator<int>>::_Vector_impl_data" }
%"struct.std::_Vector_base<int, std::allocator<int>>::_Vector_impl_data" = type { ptr, ptr, ptr }
%"class.benchmark::internal::Benchmark" = type { ptr, %"class.std::__cxx11::basic_string", i32, %"class.std::vector.10", %"class.std::vector.15", i32, i8, i32, double, double, i64, i32, i8, i8, i8, i32, ptr, %"class.std::vector.20", %"class.std::vector.5", ptr, ptr }
%"class.std::vector.10" = type { %"struct.std::_Vector_base.11" }
%"struct.std::_Vector_base.11" = type { %"struct.std::_Vector_base<std::__cxx11::basic_string<char>, std::allocator<std::__cxx11::basic_string<char>>>::_Vector_impl" }
%"struct.std::_Vector_base<std::__cxx11::basic_string<char>, std::allocator<std::__cxx11::basic_string<char>>>::_Vector_impl" = type { %"struct.std::_Vector_base<std::__cxx11::basic_string<char>, std::allocator<std::__cxx11::basic_string<char>>>::_Vector_impl_data" }
%"struct.std::_Vector_base<std::__cxx11::basic_string<char>, std::allocator<std::__cxx11::basic_string<char>>>::_Vector_impl_data" = type { ptr, ptr, ptr }
%"class.std::vector.15" = type { %"struct.std::_Vector_base.16" }
%"struct.std::_Vector_base.16" = type { %"struct.std::_Vector_base<std::vector<long>, std::allocator<std::vector<long>>>::_Vector_impl" }
%"struct.std::_Vector_base<std::vector<long>, std::allocator<std::vector<long>>>::_Vector_impl" = type { %"struct.std::_Vector_base<std::vector<long>, std::allocator<std::vector<long>>>::_Vector_impl_data" }
%"struct.std::_Vector_base<std::vector<long>, std::allocator<std::vector<long>>>::_Vector_impl_data" = type { ptr, ptr, ptr }
%"class.std::vector.20" = type { %"struct.std::_Vector_base.21" }
%"struct.std::_Vector_base.21" = type { %"struct.std::_Vector_base<benchmark::internal::Statistics, std::allocator<benchmark::internal::Statistics>>::_Vector_impl" }
%"struct.std::_Vector_base<benchmark::internal::Statistics, std::allocator<benchmark::internal::Statistics>>::_Vector_impl" = type { %"struct.std::_Vector_base<benchmark::internal::Statistics, std::allocator<benchmark::internal::Statistics>>::_Vector_impl_data" }
%"struct.std::_Vector_base<benchmark::internal::Statistics, std::allocator<benchmark::internal::Statistics>>::_Vector_impl_data" = type { ptr, ptr, ptr }
%"class.std::ios_base" = type { ptr, i64, i64, i32, i32, i32, ptr, %"struct.std::ios_base::_Words", [8 x %"struct.std::ios_base::_Words"], i32, ptr, %"class.std::locale" }
%"struct.std::ios_base::_Words" = type { ptr, i64 }

@.str.11 = private unnamed_addr constant [57 x i8] c"Cannot set UseRealTime and UseManualTime simultaneously.\00", align 1
@_ZZN9benchmark8internal18GetNullLogInstanceEvE8null_log = linkonce_odr hidden global %"class.benchmark::internal::LogType" zeroinitializer, comdat, align 8
@_ZGVZN9benchmark8internal18GetNullLogInstanceEvE8null_log = linkonce_odr hidden global i64 0, comdat, align 8

; Function Attrs: inlinehint mustprogress nounwind uwtable
define linkonce_odr noundef i32 @_ZStorSt12_Ios_IostateS_(i32 noundef %0, i32 noundef %1) #5 comdat {
  %3 = alloca i32, align 4
  %4 = alloca i32, align 4
  store i32 %0, ptr %3, align 4, !tbaa !608
  store i32 %1, ptr %4, align 4, !tbaa !608
  %5 = load i32, ptr %3, align 4, !tbaa !608
  %6 = load i32, ptr %4, align 4, !tbaa !608
  %7 = or i32 %5, %6
  ret i32 %7
}

; Function Attrs: mustprogress nounwind uwtable
define available_externally noundef i32 @_ZNKSt9basic_iosIcSt11char_traitsIcEE7rdstateEv(ptr noundef nonnull align 8 dereferenceable(264) %0) #7 align 2 {
  %2 = alloca ptr, align 8
  store ptr %0, ptr %2, align 8, !tbaa !566
  %3 = load ptr, ptr %2, align 8
  %4 = getelementptr inbounds nuw %"class.std::ios_base", ptr %3, i32 0, i32 5
  %5 = load i32, ptr %4, align 8, !tbaa !609
  ret i32 %5
}

; Function Attrs: mustprogress nounwind uwtable
define linkonce_odr hidden noundef i64 @_ZNSt11char_traitsIcE6lengthEPKc(ptr noundef %0) #7 comdat align 2 {
  %2 = alloca ptr, align 8
  store ptr %0, ptr %2, align 8, !tbaa !58
  %3 = load ptr, ptr %2, align 8, !tbaa !58
  %4 = call i64 @strlen(ptr noundef %3) #3
  ret i64 %4
}

; Function Attrs: mustprogress uwtable
define available_externally void @_ZNSt9basic_iosIcSt11char_traitsIcEE8setstateESt12_Ios_Iostate(ptr noundef nonnull align 8 dereferenceable(264) %0, i32 noundef %1) #4 align 2 {
  %3 = alloca ptr, align 8
  %4 = alloca i32, align 4
  store ptr %0, ptr %3, align 8, !tbaa !566
  store i32 %1, ptr %4, align 4, !tbaa !608
  %5 = load ptr, ptr %3, align 8
  %6 = call noundef i32 @_ZNKSt9basic_iosIcSt11char_traitsIcEE7rdstateEv(ptr noundef nonnull align 8 dereferenceable(264) %5)
  %7 = load i32, ptr %4, align 4, !tbaa !608
  %8 = call noundef i32 @_ZStorSt12_Ios_IostateS_(i32 noundef %6, i32 noundef %7)
  call void @_ZNSt9basic_iosIcSt11char_traitsIcEE5clearESt12_Ios_Iostate(ptr noundef nonnull align 8 dereferenceable(264) %5, i32 noundef %8)
  ret void
}

; Function Attrs: inlinehint mustprogress uwtable
define available_externally noundef nonnull align 8 dereferenceable(8) ptr @_ZStlsISt11char_traitsIcEERSt13basic_ostreamIcT_ES5_PKc(ptr noundef nonnull align 8 dereferenceable(8) %0, ptr noundef %1) #8 {
  %3 = alloca ptr, align 8
  %4 = alloca ptr, align 8
  store ptr %0, ptr %3, align 8, !tbaa !28
  store ptr %1, ptr %4, align 8, !tbaa !58
  %5 = load ptr, ptr %4, align 8, !tbaa !58
  %6 = icmp ne ptr %5, null
  br i1 %6, label %13, label %7

7:                                                ; preds = %2
  %8 = load ptr, ptr %3, align 8, !tbaa !28
  %9 = load ptr, ptr %8, align 8, !tbaa !62
  %10 = getelementptr i8, ptr %9, i64 -24
  %11 = load i64, ptr %10, align 8
  %12 = getelementptr inbounds i8, ptr %8, i64 %11
  call void @_ZNSt9basic_iosIcSt11char_traitsIcEE8setstateESt12_Ios_Iostate(ptr noundef nonnull align 8 dereferenceable(264) %12, i32 noundef 1)
  br label %19

13:                                               ; preds = %2
  %14 = load ptr, ptr %3, align 8, !tbaa !28
  %15 = load ptr, ptr %4, align 8, !tbaa !58
  %16 = load ptr, ptr %4, align 8, !tbaa !58
  %17 = call noundef i64 @_ZNSt11char_traitsIcE6lengthEPKc(ptr noundef %16)
  %18 = call noundef nonnull align 8 dereferenceable(8) ptr @_ZSt16__ostream_insertIcSt11char_traitsIcEERSt13basic_ostreamIT_T0_ES6_PKS3_l(ptr noundef nonnull align 8 dereferenceable(8) %14, ptr noundef %15, i64 noundef %17)
  br label %19

19:                                               ; preds = %13, %7
  %20 = load ptr, ptr %3, align 8, !tbaa !28
  ret ptr %20
}

; Function Attrs: mustprogress nounwind uwtable
define linkonce_odr hidden void @_ZN9benchmark8internal7LogTypeC2EPSo(ptr noundef nonnull align 8 dereferenceable(8) %0, ptr noundef %1) unnamed_addr #7 comdat align 2 {
  %3 = alloca ptr, align 8
  %4 = alloca ptr, align 8
  store ptr %0, ptr %3, align 8, !tbaa !194
  store ptr %1, ptr %4, align 8, !tbaa !28
  %5 = load ptr, ptr %3, align 8
  %6 = getelementptr inbounds nuw %"class.benchmark::internal::LogType", ptr %5, i32 0, i32 0
  %7 = load ptr, ptr %4, align 8, !tbaa !28
  store ptr %7, ptr %6, align 8, !tbaa !196
  ret void
}

; Function Attrs: mustprogress uwtable
define linkonce_odr hidden noundef nonnull align 8 dereferenceable(8) ptr @_ZN9benchmark8internallsIA57_cEERNS0_7LogTypeES4_RKT_(ptr noundef nonnull align 8 dereferenceable(8) %0, ptr noundef nonnull align 1 dereferenceable(57) %1) #4 comdat {
  %3 = alloca ptr, align 8
  %4 = alloca ptr, align 8
  store ptr %0, ptr %3, align 8, !tbaa !194
  store ptr %1, ptr %4, align 8, !tbaa !58
  %5 = load ptr, ptr %3, align 8, !tbaa !194
  %6 = getelementptr inbounds nuw %"class.benchmark::internal::LogType", ptr %5, i32 0, i32 0
  %7 = load ptr, ptr %6, align 8, !tbaa !196
  %8 = icmp ne ptr %7, null
  br i1 %8, label %9, label %16

9:                                                ; preds = %2
  %10 = load ptr, ptr %3, align 8, !tbaa !194
  %11 = getelementptr inbounds nuw %"class.benchmark::internal::LogType", ptr %10, i32 0, i32 0
  %12 = load ptr, ptr %11, align 8, !tbaa !196
  %13 = load ptr, ptr %4, align 8, !tbaa !58
  %14 = getelementptr inbounds [57 x i8], ptr %13, i64 0, i64 0
  %15 = call noundef nonnull align 8 dereferenceable(8) ptr @_ZStlsISt11char_traitsIcEERSt13basic_ostreamIcT_ES5_PKc(ptr noundef nonnull align 8 dereferenceable(8) %12, ptr noundef %14)
  br label %16

16:                                               ; preds = %9, %2
  %17 = load ptr, ptr %3, align 8, !tbaa !194
  ret ptr %17
}

; Function Attrs: inlinehint mustprogress uwtable
define linkonce_odr hidden noundef nonnull align 8 dereferenceable(8) ptr @_ZN9benchmark8internal18GetNullLogInstanceEv() #8 comdat personality ptr @__gxx_personality_v0 {
  %1 = alloca ptr, align 8
  %2 = alloca i32, align 4
  %3 = load atomic i8, ptr @_ZGVZN9benchmark8internal18GetNullLogInstanceEvE8null_log acquire, align 8
  %4 = icmp eq i8 %3, 0
  br i1 %4, label %5, label %10, !prof !7

5:                                                ; preds = %0
  %6 = call i32 @__cxa_guard_acquire(ptr @_ZGVZN9benchmark8internal18GetNullLogInstanceEvE8null_log) #3
  %7 = icmp ne i32 %6, 0
  br i1 %7, label %8, label %10

8:                                                ; preds = %5
  invoke void @_ZN9benchmark8internal7LogTypeC2EPSo(ptr noundef nonnull align 8 dereferenceable(8) @_ZZN9benchmark8internal18GetNullLogInstanceEvE8null_log, ptr noundef null)
          to label %9 unwind label %11

9:                                                ; preds = %8
  call void @__cxa_guard_release(ptr @_ZGVZN9benchmark8internal18GetNullLogInstanceEvE8null_log) #3
  br label %10

10:                                               ; preds = %9, %5, %0
  ret ptr @_ZZN9benchmark8internal18GetNullLogInstanceEvE8null_log

11:                                               ; preds = %8
  %12 = landingpad { ptr, i32 }
          cleanup
  %13 = extractvalue { ptr, i32 } %12, 0
  store ptr %13, ptr %1, align 8
  %14 = extractvalue { ptr, i32 } %12, 1
  store i32 %14, ptr %2, align 4
  call void @__cxa_guard_abort(ptr @_ZGVZN9benchmark8internal18GetNullLogInstanceEvE8null_log) #3
  br label %15

15:                                               ; preds = %11
  %16 = load ptr, ptr %1, align 8
  %17 = load i32, ptr %2, align 4
  %18 = insertvalue { ptr, i32 } poison, ptr %16, 0
  %19 = insertvalue { ptr, i32 } %18, i32 %17, 1
  resume { ptr, i32 } %19
}

; Function Attrs: mustprogress uwtable
define noundef ptr @_ZN9benchmark8internal9Benchmark13UseManualTimeEv(ptr noundef nonnull align 8 dereferenceable(224) %0) #4 align 2 {
  %2 = alloca ptr, align 8
  store ptr %0, ptr %2, align 8, !tbaa !70
  %3 = load ptr, ptr %2, align 8
  %4 = call noundef nonnull align 8 dereferenceable(8) ptr @_ZN9benchmark8internal18GetNullLogInstanceEv()
  %5 = call noundef nonnull align 8 dereferenceable(8) ptr @_ZN9benchmark8internallsIA57_cEERNS0_7LogTypeES4_RKT_(ptr noundef nonnull align 8 dereferenceable(8) %4, ptr noundef nonnull align 1 dereferenceable(57) @.str.11)
  %6 = getelementptr inbounds nuw %"class.benchmark::internal::Benchmark", ptr %3, i32 0, i32 14
  store i8 1, ptr %6, align 2, !tbaa !131
  ret ptr %3
}